target datalayout = "e-m:e-p270:32:32-p271:32:32-p272:64:64-i64:64-i128:128-f80:128-n8:16:32:64-S128"
target triple = "x86_64-pc-linux-gnu"

%struct.Abc_Ntk_t_ = type { i32, i32, ptr, ptr, ptr, ptr, ptr, ptr, ptr, ptr, ptr, ptr, ptr, [11 x i32], i32, i32, i32, i32, ptr, i32, ptr, ptr, i32, i32, i32, double, i32, %struct.Vec_Int_t_, ptr, ptr, ptr, ptr, ptr, float, i32, ptr, ptr, ptr, ptr, ptr, ptr, ptr, ptr, ptr, ptr, ptr, ptr, ptr, ptr, ptr, ptr, ptr, ptr, ptr, ptr, ptr }
%struct.Vec_Int_t_ = type { i32, i32, ptr }
%struct.Abc_ManTime_t_ = type { %struct.Abc_Time_t_, %struct.Abc_Time_t_, ptr, ptr, %struct.Abc_Time_t_, %struct.Abc_Time_t_, ptr, ptr }
%struct.Abc_Time_t_ = type { float, float }

; Function Attrs: nounwind uwtable
define ptr @Abc_NodeReadOutputLoad(ptr noundef %0, i32 noundef %1) #0 {
  %3 = alloca ptr, align 8
  %4 = alloca i32, align 4
  store ptr %0, ptr %3, align 8
  store i32 %1, ptr %4, align 4
  %5 = load ptr, ptr %3, align 8
  %6 = getelementptr inbounds %struct.Abc_Ntk_t_, ptr %5, i32 0, i32 31
  %7 = load ptr, ptr %6, align 8
  %8 = getelementptr inbounds %struct.Abc_ManTime_t_, ptr %7, i32 0, i32 7
  %9 = load ptr, ptr %8, align 8
  %10 = icmp ne ptr %9, null
  br i1 %10, label %11, label %20

11:                                               ; preds = %2
  %12 = load ptr, ptr %3, align 8
  %13 = getelementptr inbounds %struct.Abc_Ntk_t_, ptr %12, i32 0, i32 31
  %14 = load ptr, ptr %13, align 8
  %15 = getelementptr inbounds %struct.Abc_ManTime_t_, ptr %14, i32 0, i32 7
  %16 = load ptr, ptr %15, align 8
  %17 = load i32, ptr %4, align 4
  %18 = sext i32 %17 to i64
  %19 = getelementptr inbounds %struct.Abc_Time_t_, ptr %16, i64 %18
  br label %21

20:                                               ; preds = %2
  br label %21

21:                                               ; preds = %20, %11
  %22 = phi ptr [ %19, %11 ], [ null, %20 ]
  ret ptr %22
}